target datalayout = "e-m:e-p270:32:32-p271:32:32-p272:64:64-i64:64-i128:128-f80:128-n8:16:32:64-S128"
target triple = "x86_64-pc-linux-gnu"

%struct.dh_st = type { i32, i32, %struct.ffc_params_st, i32, ptr, ptr, i32, ptr, %struct.CRYPTO_REF_COUNT, %struct.crypto_ex_data_st, ptr, ptr, ptr, ptr, i64 }
%struct.ffc_params_st = type { ptr, ptr, ptr, ptr, ptr, i64, i32, i32, i32, i32, i32, ptr, ptr, i32 }
%struct.CRYPTO_REF_COUNT = type { i32 }
%struct.crypto_ex_data_st = type { ptr, ptr }

; Function Attrs: nounwind uwtable
define i32 @ossl_dh_check_pairwise(ptr noundef %0) #0 {
  %2 = alloca i32, align 4
  %3 = alloca ptr, align 8
  %4 = alloca i32, align 4
  %5 = alloca ptr, align 8
  %6 = alloca ptr, align 8
  %7 = alloca i32, align 4
  store ptr %0, ptr %3, align 8, !tbaa !3
  call void @llvm.lifetime.start.p0(i64 4, ptr %4) #3
  store i32 0, ptr %4, align 4, !tbaa !8
  call void @llvm.lifetime.start.p0(i64 8, ptr %5) #3
  store ptr null, ptr %5, align 8, !tbaa !14
  call void @llvm.lifetime.start.p0(i64 8, ptr %6) #3
  store ptr null, ptr %6, align 8, !tbaa !12
  %8 = load ptr, ptr %3, align 8, !tbaa !3
  %9 = getelementptr inbounds nuw %struct.dh_st, ptr %8, i32 0, i32 2
  %10 = getelementptr inbounds nuw %struct.ffc_params_st, ptr %9, i32 0, i32 0
  %11 = load ptr, ptr %10, align 8, !tbaa !28
  %12 = icmp eq ptr %11, null
  br i1 %12, label %29, label %13

13:                                               ; preds = %1
  %14 = load ptr, ptr %3, align 8, !tbaa !3
  %15 = getelementptr inbounds nuw %struct.dh_st, ptr %14, i32 0, i32 2
  %16 = getelementptr inbounds nuw %struct.ffc_params_st, ptr %15, i32 0, i32 2
  %17 = load ptr, ptr %16, align 8, !tbaa !29
  %18 = icmp eq ptr %17, null
  br i1 %18, label %29, label %19

19:                                               ; preds = %13
  %20 = load ptr, ptr %3, align 8, !tbaa !3
  %21 = getelementptr inbounds nuw %struct.dh_st, ptr %20, i32 0, i32 5
  %22 = load ptr, ptr %21, align 8, !tbaa !33
  %23 = icmp eq ptr %22, null
  br i1 %23, label %29, label %24

24:                                               ; preds = %19
  %25 = load ptr, ptr %3, align 8, !tbaa !3
  %26 = getelementptr inbounds nuw %struct.dh_st, ptr %25, i32 0, i32 4
  %27 = load ptr, ptr %26, align 8, !tbaa !34
  %28 = icmp eq ptr %27, null
  br i1 %28, label %29, label %30

29:                                               ; preds = %24, %19, %13, %1
  store i32 0, ptr %2, align 4
  store i32 1, ptr %7, align 4
  br label %65

30:                                               ; preds = %24
  %31 = load ptr, ptr %3, align 8, !tbaa !3
  %32 = getelementptr inbounds nuw %struct.dh_st, ptr %31, i32 0, i32 11
  %33 = load ptr, ptr %32, align 8, !tbaa !16
  %34 = call ptr @BN_CTX_new_ex(ptr noundef %33)
  store ptr %34, ptr %5, align 8, !tbaa !14
  %35 = load ptr, ptr %5, align 8, !tbaa !14
  %36 = icmp eq ptr %35, null
  br i1 %36, label %37, label %38

37:                                               ; preds = %30
  br label %61

38:                                               ; preds = %30
  %39 = call ptr @BN_new()
  store ptr %39, ptr %6, align 8, !tbaa !12
  %40 = load ptr, ptr %6, align 8, !tbaa !12
  %41 = icmp eq ptr %40, null
  br i1 %41, label %42, label %43

42:                                               ; preds = %38
  br label %61

43:                                               ; preds = %38
  %44 = load ptr, ptr %5, align 8, !tbaa !14
  %45 = load ptr, ptr %3, align 8, !tbaa !3
  %46 = load ptr, ptr %3, align 8, !tbaa !3
  %47 = getelementptr inbounds nuw %struct.dh_st, ptr %46, i32 0, i32 5
  %48 = load ptr, ptr %47, align 8, !tbaa !33
  %49 = load ptr, ptr %6, align 8, !tbaa !12
  %50 = call i32 @ossl_dh_generate_public_key(ptr noundef %44, ptr noundef %45, ptr noundef %48, ptr noundef %49)
  %51 = icmp ne i32 %50, 0
  br i1 %51, label %53, label %52

52:                                               ; preds = %43
  br label %61

53:                                               ; preds = %43
  %54 = load ptr, ptr %6, align 8, !tbaa !12
  %55 = load ptr, ptr %3, align 8, !tbaa !3
  %56 = getelementptr inbounds nuw %struct.dh_st, ptr %55, i32 0, i32 4
  %57 = load ptr, ptr %56, align 8, !tbaa !34
  %58 = call i32 @BN_cmp(ptr noundef %54, ptr noundef %57)
  %59 = icmp eq i32 %58, 0
  %60 = zext i1 %59 to i32
  store i32 %60, ptr %4, align 4, !tbaa !8
  br label %61

61:                                               ; preds = %53, %52, %42, %37
  %62 = load ptr, ptr %6, align 8, !tbaa !12
  call void @BN_free(ptr noundef %62)
  %63 = load ptr, ptr %5, align 8, !tbaa !14
  call void @BN_CTX_free(ptr noundef %63)
  %64 = load i32, ptr %4, align 4, !tbaa !8
  store i32 %64, ptr %2, align 4
  store i32 1, ptr %7, align 4
  br label %65

65:                                               ; preds = %61, %29
  call void @llvm.lifetime.end.p0(i64 8, ptr %6) #3
  call void @llvm.lifetime.end.p0(i64 8, ptr %5) #3
  call void @llvm.lifetime.end.p0(i64 4, ptr %4) #3
  %66 = load i32, ptr %2, align 4
  ret i32 %66
}