; Function Attrs: nounwind uwtable
define range(i32 0, 2) i32 @ossl_dh_check_pairwise(ptr noundef %0) local_unnamed_addr #0 {
  %2 = getelementptr inbounds nuw i8, ptr %0, i64 8
  %3 = load ptr, ptr %2, align 8, !tbaa !21
  %4 = icmp eq ptr %3, null
  br i1 %4, label %34, label %5

5:                                                ; preds = %1
  %6 = getelementptr inbounds nuw i8, ptr %0, i64 24
  %7 = load ptr, ptr %6, align 8, !tbaa !22
  %8 = icmp eq ptr %7, null
  br i1 %8, label %34, label %9

9:                                                ; preds = %5
  %10 = getelementptr inbounds nuw i8, ptr %0, i64 120
  %11 = load ptr, ptr %10, align 8, !tbaa !26
  %12 = icmp eq ptr %11, null
  br i1 %12, label %34, label %13

13:                                               ; preds = %9
  %14 = getelementptr inbounds nuw i8, ptr %0, i64 112
  %15 = load ptr, ptr %14, align 8, !tbaa !27
  %16 = icmp eq ptr %15, null
  br i1 %16, label %34, label %17

17:                                               ; preds = %13
  %18 = getelementptr inbounds nuw i8, ptr %0, i64 176
  %19 = load ptr, ptr %18, align 8, !tbaa !7
  %20 = tail call ptr @BN_CTX_new_ex(ptr noundef %19) #3
  %21 = icmp eq ptr %20, null
  br i1 %21, label %33, label %22

22:                                               ; preds = %17
  %23 = tail call ptr @BN_new() #3
  %24 = icmp eq ptr %23, null
  br i1 %24, label %33, label %25

25:                                               ; preds = %22
  %26 = load ptr, ptr %10, align 8, !tbaa !26
  %27 = tail call i32 @ossl_dh_generate_public_key(ptr noundef nonnull %20, ptr noundef nonnull %0, ptr noundef %26, ptr noundef nonnull %23) #3
  %.not = icmp eq i32 %27, 0
  br i1 %.not, label %33, label %28

28:                                               ; preds = %25
  %29 = load ptr, ptr %14, align 8, !tbaa !27
  %30 = tail call i32 @BN_cmp(ptr noundef nonnull %23, ptr noundef %29) #3
  %31 = icmp eq i32 %30, 0
  %32 = zext i1 %31 to i32
  br label %33

33:                                               ; preds = %25, %22, %17, %28
  %.016 = phi i32 [ 0, %17 ], [ 0, %22 ], [ %32, %28 ], [ 0, %25 ]
  %.0 = phi ptr [ null, %17 ], [ null, %22 ], [ %23, %28 ], [ %23, %25 ]
  tail call void @BN_free(ptr noundef %.0) #3
  tail call void @BN_CTX_free(ptr noundef %20) #3
  br label %34

34:                                               ; preds = %1, %5, %9, %13, %33
  %.017 = phi i32 [ %.016, %33 ], [ 0, %13 ], [ 0, %9 ], [ 0, %5 ], [ 0, %1 ]
  ret i32 %.017
}